target datalayout = "e-m:e-p270:32:32-p271:32:32-p272:64:64-i64:64-i128:128-f80:128-n8:16:32:64-S128"
target triple = "x86_64-unknown-linux-gnu"

%struct.LSIState = type { %struct.PCIDevice, ptr, %struct.MemoryRegion, %struct.MemoryRegion, %struct.MemoryRegion, %struct.AddressSpace, i32, i32, i32, i32, [8 x i8], i32, %struct.SCSIBus, i32, i32, i32, %union.anon.4, ptr, i32, i32, i32, i32, i8, i8, i8, i8, i8, i8, i8, i8, i8, i8, i8, i8, i8, i8, i8, i8, i8, i8, i32, i32, i8, i8, i8, i8, i8, i8, i8, i8, i8, i8, i8, i8, i8, i8, i8, i8, i8, i8, i8, i8, i8, i8, i32, i32, i32, i32, i32, i32, i32, i32, i32, i32, i32, i32, i32, i32, [18 x i32], i8, i32, [8192 x i8] }
%struct.PCIDevice = type { %struct.DeviceState, i8, i8, ptr, ptr, ptr, ptr, ptr, i32, %struct.PCIReqIDCache, [64 x i8], [7 x %struct.PCIIORegion], %struct.AddressSpace, %struct.MemoryRegion, %struct.MemoryRegion, ptr, ptr, [3 x ptr], i8, i8, i32, i8, i32, ptr, ptr, ptr, ptr, ptr, ptr, %struct.MemoryRegion, %struct.MemoryRegion, %struct.MemoryRegion, ptr, i8, i32, i8, %struct.PCIExpressDevice, ptr, ptr, i32, i8, %struct.MemoryRegion, i32, ptr, ptr, ptr, ptr, ptr, i32 }
%struct.DeviceState = type { %struct.Object, ptr, ptr, i8, i8, i64, ptr, i32, i8, ptr, %struct.NamedGPIOListHead, %struct.NamedClockListHead, %struct.BusStateHead, i32, i32, i32, %struct.ResettableState, ptr, %struct.MemReentrancyGuard }
%struct.Object = type { ptr, ptr, ptr, i32, ptr }
%struct.NamedGPIOListHead = type { ptr }
%struct.NamedClockListHead = type { ptr }
%struct.BusStateHead = type { ptr }
%struct.ResettableState = type { i32, i8, i8 }
%struct.MemReentrancyGuard = type { i8 }
%struct.PCIReqIDCache = type { ptr, i32 }
%struct.PCIIORegion = type { i64, i64, i8, ptr, ptr }
%struct.PCIExpressDevice = type { i8, i8, i8, i16, %struct.PCIEAERLog, i16, i16, i16, %struct.PCIESriovPF, %struct.PCIESriovVF }
%struct.PCIEAERLog = type { i16, i16, ptr }
%struct.PCIESriovPF = type { i16, [7 x i8], ptr, ptr }
%struct.PCIESriovVF = type { ptr, i16 }
%struct.MemoryRegion = type { %struct.Object, i8, i8, i8, i8, i8, i8, i8, i8, i8, i8, ptr, ptr, ptr, ptr, ptr, ptr, i32, i128, i64, ptr, i64, i8, i8, i8, i8, i8, ptr, i64, i32, %union.anon.1, %union.anon.2, %union.anon.3, ptr, i32, ptr, ptr, i8 }
%union.anon.1 = type { %struct.QTailQLink }
%struct.QTailQLink = type { ptr, ptr }
%union.anon.2 = type { %struct.QTailQLink }
%union.anon.3 = type { %struct.QTailQLink }
%struct.AddressSpace = type { %struct.rcu_head, ptr, ptr, ptr, i32, i32, ptr, %union.anon, %union.anon.0 }
%struct.rcu_head = type { ptr, ptr }
%union.anon = type { %struct.QTailQLink }
%union.anon.0 = type { %struct.QTailQLink }
%struct.SCSIBus = type { %struct.BusState, i32, %struct.SCSISense, ptr, i32 }
%struct.BusState = type { %struct.Object, ptr, ptr, ptr, i32, i8, i8, i32, %union.BusChildHead, %struct.BusStateEntry, %struct.ResettableState }
%union.BusChildHead = type { %struct.QTailQLink }
%struct.BusStateEntry = type { ptr, ptr }
%struct.SCSISense = type { i8, i8, i8 }
%union.anon.4 = type { %struct.QTailQLink }

@.str.271 = private unnamed_addr constant [99 x i8] c"/home/dtcxzyw/WorkSpace/Projects/compilers/llvm-opt-benchmark/bench/qemu/qemu/include/qemu/bswap.h\00", align 1
@__func__.stn_le_p = private unnamed_addr constant [9 x i8] c"stn_le_p\00", align 1

; Function Attrs: nounwind sspstrong uwtable
define internal void @stq_he_p(ptr noundef %ptr, i64 noundef %v) #0 {
entry:
  %ptr.addr = alloca ptr, align 8
  %v.addr = alloca i64, align 8
  store ptr %ptr, ptr %ptr.addr, align 8
  store i64 %v, ptr %v.addr, align 8
  %0 = load ptr, ptr %ptr.addr, align 8
  call void @llvm.memcpy.p0.p0.i64(ptr align 1 %0, ptr align 8 %v.addr, i64 8, i1 false)
  ret void
}

; Function Attrs: nounwind sspstrong uwtable
define internal void @stl_he_p(ptr noundef %ptr, i32 noundef %v) #0 {
entry:
  %ptr.addr = alloca ptr, align 8
  %v.addr = alloca i32, align 4
  store ptr %ptr, ptr %ptr.addr, align 8
  store i32 %v, ptr %v.addr, align 4
  %0 = load ptr, ptr %ptr.addr, align 8
  call void @llvm.memcpy.p0.p0.i64(ptr align 1 %0, ptr align 4 %v.addr, i64 4, i1 false)
  ret void
}

; Function Attrs: nounwind sspstrong uwtable
define internal void @stw_he_p(ptr noundef %ptr, i16 noundef zeroext %v) #0 {
entry:
  %ptr.addr = alloca ptr, align 8
  %v.addr = alloca i16, align 2
  store ptr %ptr, ptr %ptr.addr, align 8
  store i16 %v, ptr %v.addr, align 2
  %0 = load ptr, ptr %ptr.addr, align 8
  call void @llvm.memcpy.p0.p0.i64(ptr align 1 %0, ptr align 2 %v.addr, i64 2, i1 false)
  ret void
}

; Function Attrs: nounwind sspstrong uwtable
define internal void @stq_le_p(ptr noundef %ptr, i64 noundef %v) #0 {
entry:
  %ptr.addr = alloca ptr, align 8
  %v.addr = alloca i64, align 8
  store ptr %ptr, ptr %ptr.addr, align 8
  store i64 %v, ptr %v.addr, align 8
  %0 = load ptr, ptr %ptr.addr, align 8
  %1 = load i64, ptr %v.addr, align 8
  call void @stq_he_p(ptr noundef %0, i64 noundef %1)
  ret void
}

; Function Attrs: nounwind sspstrong uwtable
define internal void @stl_le_p(ptr noundef %ptr, i32 noundef %v) #0 {
entry:
  %ptr.addr = alloca ptr, align 8
  %v.addr = alloca i32, align 4
  store ptr %ptr, ptr %ptr.addr, align 8
  store i32 %v, ptr %v.addr, align 4
  %0 = load ptr, ptr %ptr.addr, align 8
  %1 = load i32, ptr %v.addr, align 4
  call void @stl_he_p(ptr noundef %0, i32 noundef %1)
  ret void
}

; Function Attrs: nounwind sspstrong uwtable
define internal void @stw_le_p(ptr noundef %ptr, i16 noundef zeroext %v) #0 {
entry:
  %ptr.addr = alloca ptr, align 8
  %v.addr = alloca i16, align 2
  store ptr %ptr, ptr %ptr.addr, align 8
  store i16 %v, ptr %v.addr, align 2
  %0 = load ptr, ptr %ptr.addr, align 8
  %1 = load i16, ptr %v.addr, align 2
  call void @stw_he_p(ptr noundef %0, i16 noundef zeroext %1)
  ret void
}

; Function Attrs: nounwind sspstrong uwtable
define internal void @stb_p(ptr noundef %ptr, i8 noundef zeroext %v) #0 {
entry:
  %ptr.addr = alloca ptr, align 8
  %v.addr = alloca i8, align 1
  store ptr %ptr, ptr %ptr.addr, align 8
  store i8 %v, ptr %v.addr, align 1
  %0 = load i8, ptr %v.addr, align 1
  %1 = load ptr, ptr %ptr.addr, align 8
  store i8 %0, ptr %1, align 1
  ret void
}

; Function Attrs: nounwind sspstrong uwtable
define internal void @stn_le_p(ptr noundef %ptr, i32 noundef %sz, i64 noundef %v) #0 {
entry:
  %ptr.addr = alloca ptr, align 8
  %sz.addr = alloca i32, align 4
  %v.addr = alloca i64, align 8
  store ptr %ptr, ptr %ptr.addr, align 8
  store i32 %sz, ptr %sz.addr, align 4
  store i64 %v, ptr %v.addr, align 8
  %0 = load i32, ptr %sz.addr, align 4
  switch i32 %0, label %sw.default [
    i32 1, label %sw.bb
    i32 2, label %sw.bb1
    i32 4, label %sw.bb3
    i32 8, label %sw.bb5
  ]

sw.bb:                                            ; preds = %entry
  %1 = load ptr, ptr %ptr.addr, align 8
  %2 = load i64, ptr %v.addr, align 8
  %conv = trunc i64 %2 to i8
  call void @stb_p(ptr noundef %1, i8 noundef zeroext %conv)
  br label %sw.epilog

sw.bb1:                                           ; preds = %entry
  %3 = load ptr, ptr %ptr.addr, align 8
  %4 = load i64, ptr %v.addr, align 8
  %conv2 = trunc i64 %4 to i16
  call void @stw_le_p(ptr noundef %3, i16 noundef zeroext %conv2)
  br label %sw.epilog

sw.bb3:                                           ; preds = %entry
  %5 = load ptr, ptr %ptr.addr, align 8
  %6 = load i64, ptr %v.addr, align 8
  %conv4 = trunc i64 %6 to i32
  call void @stl_le_p(ptr noundef %5, i32 noundef %conv4)
  br label %sw.epilog

sw.bb5:                                           ; preds = %entry
  %7 = load ptr, ptr %ptr.addr, align 8
  %8 = load i64, ptr %v.addr, align 8
  call void @stq_le_p(ptr noundef %7, i64 noundef %8)
  br label %sw.epilog

sw.default:                                       ; preds = %entry
  br label %do.body

do.body:                                          ; preds = %sw.default
  call void @g_assertion_message_expr(ptr noundef null, ptr noundef @.str.271, i32 noundef 419, ptr noundef @__func__.stn_le_p, ptr noundef null) #12
  unreachable

do.end:                                           ; No predecessors!
  br label %sw.epilog

sw.epilog:                                        ; preds = %do.end, %sw.bb5, %sw.bb3, %sw.bb1, %sw.bb
  ret void
}

; Function Attrs: nounwind sspstrong uwtable
define internal void @lsi_ram_write(ptr noundef %opaque, i64 noundef %addr, i64 noundef %val, i32 noundef %size) #0 {
entry:
  %opaque.addr = alloca ptr, align 8
  %addr.addr = alloca i64, align 8
  %val.addr = alloca i64, align 8
  %size.addr = alloca i32, align 4
  %s = alloca ptr, align 8
  store ptr %opaque, ptr %opaque.addr, align 8
  store i64 %addr, ptr %addr.addr, align 8
  store i64 %val, ptr %val.addr, align 8
  store i32 %size, ptr %size.addr, align 4
  %0 = load ptr, ptr %opaque.addr, align 8
  store ptr %0, ptr %s, align 8
  %1 = load ptr, ptr %s, align 8
  %script_ram = getelementptr inbounds %struct.LSIState, ptr %1, i32 0, i32 81
  %arraydecay = getelementptr inbounds [8192 x i8], ptr %script_ram, i64 0, i64 0
  %2 = load i64, ptr %addr.addr, align 8
  %add.ptr = getelementptr i8, ptr %arraydecay, i64 %2
  %3 = load i32, ptr %size.addr, align 4
  %4 = load i64, ptr %val.addr, align 8
  call void @stn_le_p(ptr noundef %add.ptr, i32 noundef %3, i64 noundef %4)
  ret void
}