; Function Attrs: nounwind sspstrong uwtable
define internal void @lsi_ram_write(ptr noundef writeonly captures(none) %opaque, i64 noundef %addr, i64 noundef %val, i32 noundef %size) #0 {
entry:
  %script_ram = getelementptr inbounds nuw i8, ptr %opaque, i64 3948
  %add.ptr = getelementptr i8, ptr %script_ram, i64 %addr
  switch i32 %size, label %do.body.i [
    i32 1, label %sw.bb.i
    i32 2, label %sw.bb1.i
    i32 4, label %sw.bb3.i
    i32 8, label %sw.bb5.i
  ]

sw.bb.i:                                          ; preds = %entry
  %conv.i = trunc i64 %val to i8
  store i8 %conv.i, ptr %add.ptr, align 1
  br label %stn_le_p.exit

sw.bb1.i:                                         ; preds = %entry
  %conv2.i = trunc i64 %val to i16
  store i16 %conv2.i, ptr %add.ptr, align 1
  br label %stn_le_p.exit

sw.bb3.i:                                         ; preds = %entry
  %conv4.i = trunc i64 %val to i32
  store i32 %conv4.i, ptr %add.ptr, align 1
  br label %stn_le_p.exit

sw.bb5.i:                                         ; preds = %entry
  store i64 %val, ptr %add.ptr, align 1
  br label %stn_le_p.exit

do.body.i:                                        ; preds = %entry
  tail call void @g_assertion_message_expr(ptr noundef null, ptr noundef nonnull @.str.271, i32 noundef 419, ptr noundef nonnull @__func__.stn_le_p, ptr noundef null) #13
  unreachable

stn_le_p.exit:                                    ; preds = %sw.bb.i, %sw.bb1.i, %sw.bb3.i, %sw.bb5.i
  ret void
}